target datalayout = "e-m:e-p270:32:32-p271:32:32-p272:64:64-i64:64-i128:128-f80:128-n8:16:32:64-S128"
target triple = "x86_64-pc-linux-gnu"

%struct.sock_gres = type { ptr, ptr, i64, ptr, ptr, ptr, i64, i32, i64, i64, i8 }
%struct.gres_state = type { i32, i32, ptr, ptr, i32 }
%struct.gres_job_state = type { i32, ptr, i16, i16, i64, i64, i64, i64, i64, i16, i16, i64, i32, ptr, ptr, ptr, ptr, i32, i64, i32, ptr, ptr, ptr, ptr, ptr, ptr }

@.str.5 = private unnamed_addr constant [13 x i8] c"gres_sched.c\00", align 1
@__func__.gres_sched_consec = private unnamed_addr constant [18 x i8] c"gres_sched_consec\00", align 1

; Function Attrs: nounwind uwtable
define dso_local void @gres_sched_consec(ptr noundef %0, ptr noundef %1, ptr noundef %2) #0 {
  %4 = alloca ptr, align 8
  %5 = alloca ptr, align 8
  %6 = alloca ptr, align 8
  %7 = alloca ptr, align 8
  %8 = alloca ptr, align 8
  %9 = alloca ptr, align 8
  %10 = alloca ptr, align 8
  %11 = alloca ptr, align 8
  %12 = alloca i32, align 4
  store ptr %0, ptr %4, align 8
  store ptr %1, ptr %5, align 8
  store ptr %2, ptr %6, align 8
  call void @llvm.lifetime.start.p0(i64 8, ptr %7) #3
  call void @llvm.lifetime.start.p0(i64 8, ptr %8) #3
  call void @llvm.lifetime.start.p0(i64 8, ptr %9) #3
  call void @llvm.lifetime.start.p0(i64 8, ptr %10) #3
  call void @llvm.lifetime.start.p0(i64 8, ptr %11) #3
  %13 = load ptr, ptr %5, align 8
  %14 = icmp ne ptr %13, null
  br i1 %14, label %16, label %15

15:                                               ; preds = %3
  store i32 1, ptr %12, align 4
  br label %71

16:                                               ; preds = %3
  %17 = load ptr, ptr %5, align 8
  %18 = call ptr @slurm_list_iterator_create(ptr noundef %17)
  store ptr %18, ptr %7, align 8
  br label %19

19:                                               ; preds = %61, %38, %31, %16
  %20 = load ptr, ptr %7, align 8
  %21 = call ptr @slurm_list_next(ptr noundef %20)
  store ptr %21, ptr %8, align 8
  %22 = icmp ne ptr %21, null
  br i1 %22, label %23, label %69

23:                                               ; preds = %19
  %24 = load ptr, ptr %8, align 8
  %25 = getelementptr inbounds nuw %struct.gres_state, ptr %24, i32 0, i32 2
  %26 = load ptr, ptr %25, align 8
  store ptr %26, ptr %9, align 8
  %27 = load ptr, ptr %9, align 8
  %28 = getelementptr inbounds nuw %struct.gres_job_state, ptr %27, i32 0, i32 4
  %29 = load i64, ptr %28, align 8
  %30 = icmp ne i64 %29, 0
  br i1 %30, label %32, label %31

31:                                               ; preds = %23
  br label %19, !llvm.loop !19

32:                                               ; preds = %23
  %33 = load ptr, ptr %6, align 8
  %34 = load ptr, ptr %8, align 8
  %35 = call ptr @slurm_list_find_first(ptr noundef %33, ptr noundef @slurm_gres_find_sock_by_job_state, ptr noundef %34)
  store ptr %35, ptr %10, align 8
  %36 = load ptr, ptr %10, align 8
  %37 = icmp ne ptr %36, null
  br i1 %37, label %39, label %38

38:                                               ; preds = %32
  br label %19, !llvm.loop !19

39:                                               ; preds = %32
  %40 = load ptr, ptr %4, align 8
  %41 = load ptr, ptr %40, align 8
  %42 = icmp eq ptr %41, null
  br i1 %42, label %43, label %46

43:                                               ; preds = %39
  %44 = call ptr @slurm_list_create(ptr noundef @slurm_gres_sock_delete)
  %45 = load ptr, ptr %4, align 8
  store ptr %44, ptr %45, align 8
  br label %46

46:                                               ; preds = %43, %39
  %47 = load ptr, ptr %4, align 8
  %48 = load ptr, ptr %47, align 8
  %49 = load ptr, ptr %8, align 8
  %50 = call ptr @slurm_list_find_first(ptr noundef %48, ptr noundef @slurm_gres_find_sock_by_job_state, ptr noundef %49)
  store ptr %50, ptr %11, align 8
  %51 = load ptr, ptr %11, align 8
  %52 = icmp ne ptr %51, null
  br i1 %52, label %61, label %53

53:                                               ; preds = %46
  %54 = call ptr @slurm_xcalloc(i64 noundef 1, i64 noundef 88, i1 noundef zeroext true, i1 noundef zeroext false, ptr noundef @.str.5, i32 noundef 369, ptr noundef @__func__.gres_sched_consec)
  store ptr %54, ptr %11, align 8
  %55 = load ptr, ptr %8, align 8
  %56 = load ptr, ptr %11, align 8
  %57 = getelementptr inbounds nuw %struct.sock_gres, ptr %56, i32 0, i32 4
  store ptr %55, ptr %57, align 8
  %58 = load ptr, ptr %4, align 8
  %59 = load ptr, ptr %58, align 8
  %60 = load ptr, ptr %11, align 8
  call void @slurm_list_append(ptr noundef %59, ptr noundef %60)
  br label %61

61:                                               ; preds = %53, %46
  %62 = load ptr, ptr %10, align 8
  %63 = getelementptr inbounds nuw %struct.sock_gres, ptr %62, i32 0, i32 8
  %64 = load i64, ptr %63, align 8
  %65 = load ptr, ptr %11, align 8
  %66 = getelementptr inbounds nuw %struct.sock_gres, ptr %65, i32 0, i32 8
  %67 = load i64, ptr %66, align 8
  %68 = add i64 %67, %64
  store i64 %68, ptr %66, align 8
  br label %19, !llvm.loop !19

69:                                               ; preds = %19
  %70 = load ptr, ptr %7, align 8
  call void @slurm_list_iterator_destroy(ptr noundef %70)
  store i32 0, ptr %12, align 4
  br label %71

71:                                               ; preds = %69, %15
  call void @llvm.lifetime.end.p0(i64 8, ptr %11) #3
  call void @llvm.lifetime.end.p0(i64 8, ptr %10) #3
  call void @llvm.lifetime.end.p0(i64 8, ptr %9) #3
  call void @llvm.lifetime.end.p0(i64 8, ptr %8) #3
  call void @llvm.lifetime.end.p0(i64 8, ptr %7) #3
  %72 = load i32, ptr %12, align 4
  switch i32 %72, label %74 [
    i32 0, label %73
    i32 1, label %73
  ]

73:                                               ; preds = %71, %71
  ret void

74:                                               ; preds = %71
  unreachable
}