; Function Attrs: nounwind uwtable
define dso_local void @gres_sched_consec(ptr noundef captures(none) %0, ptr noundef %1, ptr noundef %2) local_unnamed_addr #0 {
  %.not = icmp eq ptr %1, null
  br i1 %.not, label %33, label %4

4:                                                ; preds = %3
  %5 = tail call ptr @slurm_list_iterator_create(ptr noundef nonnull %1) #4
  %6 = tail call ptr @slurm_list_next(ptr noundef %5) #4
  %.not2428 = icmp eq ptr %6, null
  br i1 %.not2428, label %._crit_edge, label %.lr.ph

.lr.ph:                                           ; preds = %4, %.backedge
  %7 = phi ptr [ %32, %.backedge ], [ %6, %4 ]
  %8 = getelementptr inbounds nuw i8, ptr %7, i64 8
  %9 = load ptr, ptr %8, align 8
  %10 = getelementptr inbounds nuw i8, ptr %9, i64 24
  %11 = load i64, ptr %10, align 8
  %.not25 = icmp eq i64 %11, 0
  br i1 %.not25, label %.backedge, label %12

12:                                               ; preds = %.lr.ph
  %13 = tail call ptr @slurm_list_find_first(ptr noundef %2, ptr noundef nonnull @slurm_gres_find_sock_by_job_state, ptr noundef nonnull %7) #4
  %.not26 = icmp eq ptr %13, null
  br i1 %.not26, label %.backedge, label %14

14:                                               ; preds = %12
  %15 = load ptr, ptr %0, align 8
  %16 = icmp eq ptr %15, null
  br i1 %16, label %17, label %19

17:                                               ; preds = %14
  %18 = tail call ptr @slurm_list_create(ptr noundef nonnull @slurm_gres_sock_delete) #4
  store ptr %18, ptr %0, align 8
  br label %19

19:                                               ; preds = %17, %14
  %20 = phi ptr [ %18, %17 ], [ %15, %14 ]
  %21 = tail call ptr @slurm_list_find_first(ptr noundef %20, ptr noundef nonnull @slurm_gres_find_sock_by_job_state, ptr noundef nonnull %7) #4
  %.not27 = icmp eq ptr %21, null
  br i1 %.not27, label %22, label %26

22:                                               ; preds = %19
  %23 = tail call ptr @slurm_xcalloc(i64 noundef 1, i64 noundef 88, i1 noundef zeroext true, i1 noundef zeroext false, ptr noundef nonnull @.str.5, i32 noundef 369, ptr noundef nonnull @__func__.gres_sched_consec) #4
  %24 = getelementptr inbounds nuw i8, ptr %23, i64 32
  store ptr %7, ptr %24, align 8
  %25 = load ptr, ptr %0, align 8
  tail call void @slurm_list_append(ptr noundef %25, ptr noundef %23) #4
  br label %26

26:                                               ; preds = %22, %19
  %.0 = phi ptr [ %21, %19 ], [ %23, %22 ]
  %27 = getelementptr inbounds nuw i8, ptr %13, i64 64
  %28 = load i64, ptr %27, align 8
  %29 = getelementptr inbounds nuw i8, ptr %.0, i64 64
  %30 = load i64, ptr %29, align 8
  %31 = add i64 %30, %28
  store i64 %31, ptr %29, align 8
  br label %.backedge

.backedge:                                        ; preds = %26, %.lr.ph, %12
  %32 = tail call ptr @slurm_list_next(ptr noundef %5) #4
  %.not24 = icmp eq ptr %32, null
  br i1 %.not24, label %._crit_edge, label %.lr.ph, !llvm.loop !16

._crit_edge:                                      ; preds = %.backedge, %4
  tail call void @slurm_list_iterator_destroy(ptr noundef %5) #4
  br label %33

33:                                               ; preds = %3, %._crit_edge
  ret void
}